target datalayout = "e-m:e-p270:32:32-p271:32:32-p272:64:64-i64:64-i128:128-f80:128-n8:16:32:64-S128"
target triple = "x86_64-unknown-linux-gnu"

%struct.E1000State_st = type { %struct.PCIDevice, ptr, %struct.NICConf, %struct.MemoryRegion, %struct.MemoryRegion, [32768 x i32], [32 x i16], [64 x i16], i32, i32, %struct.e1000_tx, %struct.anon, ptr, ptr, i8, i8, i32, ptr, i32, i8, i8, %struct.e1000x_txd_props }
%struct.PCIDevice = type { %struct.DeviceState, i8, i8, ptr, ptr, ptr, ptr, ptr, i32, %struct.PCIReqIDCache, [64 x i8], [7 x %struct.PCIIORegion], %struct.AddressSpace, %struct.MemoryRegion, %struct.MemoryRegion, ptr, ptr, [3 x ptr], i8, i8, i32, i8, i32, ptr, ptr, ptr, ptr, ptr, ptr, %struct.MemoryRegion, %struct.MemoryRegion, %struct.MemoryRegion, ptr, i8, i32, i8, %struct.PCIExpressDevice, ptr, ptr, i32, i8, %struct.MemoryRegion, i32, ptr, ptr, ptr, ptr, ptr, i32 }
%struct.DeviceState = type { %struct.Object, ptr, ptr, i8, i8, i64, ptr, i32, i8, ptr, %struct.NamedGPIOListHead, %struct.NamedClockListHead, %struct.BusStateHead, i32, i32, i32, %struct.ResettableState, ptr, %struct.MemReentrancyGuard }
%struct.Object = type { ptr, ptr, ptr, i32, ptr }
%struct.NamedGPIOListHead = type { ptr }
%struct.NamedClockListHead = type { ptr }
%struct.BusStateHead = type { ptr }
%struct.ResettableState = type { i32, i8, i8 }
%struct.MemReentrancyGuard = type { i8 }
%struct.PCIReqIDCache = type { ptr, i32 }
%struct.PCIIORegion = type { i64, i64, i8, ptr, ptr }
%struct.AddressSpace = type { %struct.rcu_head, ptr, ptr, ptr, i32, i32, ptr, %union.anon, %union.anon.0 }
%struct.rcu_head = type { ptr, ptr }
%union.anon = type { %struct.QTailQLink }
%struct.QTailQLink = type { ptr, ptr }
%union.anon.0 = type { %struct.QTailQLink }
%struct.PCIExpressDevice = type { i8, i8, i8, i16, %struct.PCIEAERLog, i16, i16, i16, %struct.PCIESriovPF, %struct.PCIESriovVF }
%struct.PCIEAERLog = type { i16, i16, ptr }
%struct.PCIESriovPF = type { i16, [7 x i8], ptr, ptr }
%struct.PCIESriovVF = type { ptr, i16 }
%struct.NICConf = type { %struct.MACAddr, %struct.NICPeers, i32 }
%struct.MACAddr = type { [6 x i8] }
%struct.NICPeers = type { [1024 x ptr], i32 }
%struct.MemoryRegion = type { %struct.Object, i8, i8, i8, i8, i8, i8, i8, i8, i8, i8, ptr, ptr, ptr, ptr, ptr, ptr, i32, i128, i64, ptr, i64, i8, i8, i8, i8, i8, ptr, i64, i32, %union.anon.1, %union.anon.2, %union.anon.3, ptr, i32, ptr, ptr, i8 }
%union.anon.1 = type { %struct.QTailQLink }
%union.anon.2 = type { %struct.QTailQLink }
%union.anon.3 = type { %struct.QTailQLink }
%struct.e1000_tx = type { [256 x i8], [4 x i8], [4 x i8], [65536 x i8], i16, i8, i8, i8, %struct.e1000x_txd_props, %struct.e1000x_txd_props, i16, i8 }
%struct.anon = type { i32, i16, i16, i16, i32 }
%struct.e1000x_txd_props = type { i8, i8, i16, i8, i8, i16, i32, i8, i16, i8, i8, i8 }

@e1000_send_packet.PTCregs = internal constant [6 x i32] [i32 4150, i32 4151, i32 4152, i32 4153, i32 4154, i32 4155], align 16

; Function Attrs: nounwind sspstrong uwtable
define internal i32 @is_multicast_ether_addr(ptr noundef %addr) #0 {
entry:
  %addr.addr = alloca ptr, align 8
  store ptr %addr, ptr %addr.addr, align 8
  %0 = load ptr, ptr %addr.addr, align 8
  %arrayidx = getelementptr i8, ptr %0, i64 0
  %1 = load i8, ptr %arrayidx, align 1
  %conv = zext i8 %1 to i32
  %and = and i32 1, %conv
  ret i32 %and
}

; Function Attrs: nounwind sspstrong uwtable
define internal void @e1000x_inc_reg_if_not_full(ptr noundef %mac, i32 noundef %index) #0 {
entry:
  %mac.addr = alloca ptr, align 8
  %index.addr = alloca i32, align 4
  store ptr %mac, ptr %mac.addr, align 8
  store i32 %index, ptr %index.addr, align 4
  %0 = load ptr, ptr %mac.addr, align 8
  %1 = load i32, ptr %index.addr, align 4
  %idxprom = sext i32 %1 to i64
  %arrayidx = getelementptr i32, ptr %0, i64 %idxprom
  %2 = load i32, ptr %arrayidx, align 4
  %cmp = icmp ne i32 %2, -1
  br i1 %cmp, label %if.then, label %if.end

if.then:                                          ; preds = %entry
  %3 = load ptr, ptr %mac.addr, align 8
  %4 = load i32, ptr %index.addr, align 4
  %idxprom1 = sext i32 %4 to i64
  %arrayidx2 = getelementptr i32, ptr %3, i64 %idxprom1
  %5 = load i32, ptr %arrayidx2, align 4
  %inc = add i32 %5, 1
  store i32 %inc, ptr %arrayidx2, align 4
  br label %if.end

if.end:                                           ; preds = %if.then, %entry
  ret void
}

; Function Attrs: nounwind sspstrong uwtable
define internal i32 @is_broadcast_ether_addr(ptr noundef %addr) #0 {
entry:
  %addr.addr = alloca ptr, align 8
  store ptr %addr, ptr %addr.addr, align 8
  %0 = load ptr, ptr %addr.addr, align 8
  %arrayidx = getelementptr i8, ptr %0, i64 0
  %1 = load i8, ptr %arrayidx, align 1
  %conv = zext i8 %1 to i32
  %2 = load ptr, ptr %addr.addr, align 8
  %arrayidx1 = getelementptr i8, ptr %2, i64 1
  %3 = load i8, ptr %arrayidx1, align 1
  %conv2 = zext i8 %3 to i32
  %and = and i32 %conv, %conv2
  %4 = load ptr, ptr %addr.addr, align 8
  %arrayidx3 = getelementptr i8, ptr %4, i64 2
  %5 = load i8, ptr %arrayidx3, align 1
  %conv4 = zext i8 %5 to i32
  %and5 = and i32 %and, %conv4
  %6 = load ptr, ptr %addr.addr, align 8
  %arrayidx6 = getelementptr i8, ptr %6, i64 3
  %7 = load i8, ptr %arrayidx6, align 1
  %conv7 = zext i8 %7 to i32
  %and8 = and i32 %and5, %conv7
  %8 = load ptr, ptr %addr.addr, align 8
  %arrayidx9 = getelementptr i8, ptr %8, i64 4
  %9 = load i8, ptr %arrayidx9, align 1
  %conv10 = zext i8 %9 to i32
  %and11 = and i32 %and8, %conv10
  %10 = load ptr, ptr %addr.addr, align 8
  %arrayidx12 = getelementptr i8, ptr %10, i64 5
  %11 = load i8, ptr %arrayidx12, align 1
  %conv13 = zext i8 %11 to i32
  %and14 = and i32 %and11, %conv13
  %cmp = icmp eq i32 %and14, 255
  %conv15 = zext i1 %cmp to i32
  ret i32 %conv15
}

; Function Attrs: nounwind sspstrong uwtable
define internal void @inc_tx_bcast_or_mcast_count(ptr noundef %s, ptr noundef %arr) #0 {
entry:
  %s.addr = alloca ptr, align 8
  %arr.addr = alloca ptr, align 8
  store ptr %s, ptr %s.addr, align 8
  store ptr %arr, ptr %arr.addr, align 8
  %0 = load ptr, ptr %arr.addr, align 8
  %call = call i32 @is_broadcast_ether_addr(ptr noundef %0)
  %tobool = icmp ne i32 %call, 0
  br i1 %tobool, label %if.then, label %if.else

if.then:                                          ; preds = %entry
  %1 = load ptr, ptr %s.addr, align 8
  %mac_reg = getelementptr inbounds %struct.E1000State_st, ptr %1, i32 0, i32 5
  %arraydecay = getelementptr inbounds [32768 x i32], ptr %mac_reg, i64 0, i64 0
  call void @e1000x_inc_reg_if_not_full(ptr noundef %arraydecay, i32 noundef 4157)
  br label %if.end6

if.else:                                          ; preds = %entry
  %2 = load ptr, ptr %arr.addr, align 8
  %call1 = call i32 @is_multicast_ether_addr(ptr noundef %2)
  %tobool2 = icmp ne i32 %call1, 0
  br i1 %tobool2, label %if.then3, label %if.end

if.then3:                                         ; preds = %if.else
  %3 = load ptr, ptr %s.addr, align 8
  %mac_reg4 = getelementptr inbounds %struct.E1000State_st, ptr %3, i32 0, i32 5
  %arraydecay5 = getelementptr inbounds [32768 x i32], ptr %mac_reg4, i64 0, i64 0
  call void @e1000x_inc_reg_if_not_full(ptr noundef %arraydecay5, i32 noundef 4156)
  br label %if.end

if.end:                                           ; preds = %if.then3, %if.else
  br label %if.end6

if.end6:                                          ; preds = %if.end, %if.then
  ret void
}

; Function Attrs: nounwind sspstrong uwtable
define internal void @e1000_send_packet(ptr noundef %s, ptr noundef %buf, i32 noundef %size) #0 {
entry:
  %s.addr = alloca ptr, align 8
  %buf.addr = alloca ptr, align 8
  %size.addr = alloca i32, align 4
  %nc = alloca ptr, align 8
  store ptr %s, ptr %s.addr, align 8
  store ptr %buf, ptr %buf.addr, align 8
  store i32 %size, ptr %size.addr, align 4
  %0 = load ptr, ptr %s.addr, align 8
  %nic = getelementptr inbounds %struct.E1000State_st, ptr %0, i32 0, i32 1
  %1 = load ptr, ptr %nic, align 16
  %call = call ptr @qemu_get_queue(ptr noundef %1)
  store ptr %call, ptr %nc, align 8
  %2 = load ptr, ptr %s.addr, align 8
  %phy_reg = getelementptr inbounds %struct.E1000State_st, ptr %2, i32 0, i32 6
  %arrayidx = getelementptr [32 x i16], ptr %phy_reg, i64 0, i64 0
  %3 = load i16, ptr %arrayidx, align 16
  %conv = zext i16 %3 to i32
  %and = and i32 %conv, 16384
  %tobool = icmp ne i32 %and, 0
  br i1 %tobool, label %if.then, label %if.else

if.then:                                          ; preds = %entry
  %4 = load ptr, ptr %nc, align 8
  %5 = load ptr, ptr %buf.addr, align 8
  %6 = load i32, ptr %size.addr, align 4
  %call1 = call i64 @qemu_receive_packet(ptr noundef %4, ptr noundef %5, i32 noundef %6)
  br label %if.end

if.else:                                          ; preds = %entry
  %7 = load ptr, ptr %nc, align 8
  %8 = load ptr, ptr %buf.addr, align 8
  %9 = load i32, ptr %size.addr, align 4
  %call2 = call i64 @qemu_send_packet(ptr noundef %7, ptr noundef %8, i32 noundef %9)
  br label %if.end

if.end:                                           ; preds = %if.else, %if.then
  %10 = load ptr, ptr %s.addr, align 8
  %11 = load ptr, ptr %buf.addr, align 8
  call void @inc_tx_bcast_or_mcast_count(ptr noundef %10, ptr noundef %11)
  %12 = load ptr, ptr %s.addr, align 8
  %mac_reg = getelementptr inbounds %struct.E1000State_st, ptr %12, i32 0, i32 5
  %arraydecay = getelementptr inbounds [32768 x i32], ptr %mac_reg, i64 0, i64 0
  %13 = load i32, ptr %size.addr, align 4
  %add = add i32 %13, 4
  call void @e1000x_increase_size_stats(ptr noundef %arraydecay, ptr noundef @e1000_send_packet.PTCregs, i32 noundef %add)
  ret void
}