; Function Attrs: nounwind sspstrong uwtable
define internal fastcc void @e1000_send_packet(ptr noundef %s, ptr noundef %buf, i32 noundef range(i32 0, 65540) %size) unnamed_addr #0 {
entry:
  %nic = getelementptr inbounds nuw i8, ptr %s, i64 2608
  %0 = load ptr, ptr %nic, align 16
  %call = tail call ptr @qemu_get_queue(ptr noundef %0) #13
  %phy_reg = getelementptr inbounds nuw i8, ptr %s, i64 142448
  %1 = load i16, ptr %phy_reg, align 16
  %2 = and i16 %1, 16384
  %tobool.not = icmp eq i16 %2, 0
  br i1 %tobool.not, label %if.else, label %if.then

if.then:                                          ; preds = %entry
  %call1 = tail call i64 @qemu_receive_packet(ptr noundef %call, ptr noundef %buf, i32 noundef %size) #13
  br label %if.end

if.else:                                          ; preds = %entry
  %call2 = tail call i64 @qemu_send_packet(ptr noundef %call, ptr noundef %buf, i32 noundef %size) #13
  br label %if.end

if.end:                                           ; preds = %if.else, %if.then
  %3 = load i8, ptr %buf, align 1
  %arrayidx1.i.i = getelementptr i8, ptr %buf, i64 1
  %4 = load i8, ptr %arrayidx1.i.i, align 1
  %arrayidx3.i.i = getelementptr i8, ptr %buf, i64 2
  %5 = load i8, ptr %arrayidx3.i.i, align 1
  %arrayidx6.i.i = getelementptr i8, ptr %buf, i64 3
  %6 = load i8, ptr %arrayidx6.i.i, align 1
  %arrayidx9.i.i = getelementptr i8, ptr %buf, i64 4
  %7 = load i8, ptr %arrayidx9.i.i, align 1
  %arrayidx12.i.i = getelementptr i8, ptr %buf, i64 5
  %8 = load i8, ptr %arrayidx12.i.i, align 1
  %9 = and i8 %4, %5
  %10 = and i8 %9, %6
  %11 = and i8 %10, %7
  %12 = and i8 %11, %8
  %and1410.i.i = and i8 %12, %3
  %cmp.i.not.i = icmp eq i8 %and1410.i.i, -1
  br i1 %cmp.i.not.i, label %if.then.i, label %if.else.i

if.then.i:                                        ; preds = %if.end
  %arrayidx.i.i = getelementptr i8, ptr %s, i64 28004
  %13 = load i32, ptr %arrayidx.i.i, align 4
  %cmp.not.i.i = icmp eq i32 %13, -1
  br i1 %cmp.not.i.i, label %inc_tx_bcast_or_mcast_count.exit, label %if.then.i.i

if.then.i.i:                                      ; preds = %if.then.i
  %inc.i.i = add nuw i32 %13, 1
  store i32 %inc.i.i, ptr %arrayidx.i.i, align 4
  br label %inc_tx_bcast_or_mcast_count.exit

if.else.i:                                        ; preds = %if.end
  %14 = and i8 %3, 1
  %tobool2.not.i = icmp eq i8 %14, 0
  br i1 %tobool2.not.i, label %inc_tx_bcast_or_mcast_count.exit, label %if.then3.i

if.then3.i:                                       ; preds = %if.else.i
  %arrayidx.i3.i = getelementptr i8, ptr %s, i64 28000
  %15 = load i32, ptr %arrayidx.i3.i, align 4
  %cmp.not.i4.i = icmp eq i32 %15, -1
  br i1 %cmp.not.i4.i, label %inc_tx_bcast_or_mcast_count.exit, label %if.then.i5.i

if.then.i5.i:                                     ; preds = %if.then3.i
  %inc.i6.i = add nuw i32 %15, 1
  store i32 %inc.i6.i, ptr %arrayidx.i3.i, align 4
  br label %inc_tx_bcast_or_mcast_count.exit

inc_tx_bcast_or_mcast_count.exit:                 ; preds = %if.then.i, %if.then.i.i, %if.else.i, %if.then3.i, %if.then.i5.i
  %mac_reg = getelementptr inbounds nuw i8, ptr %s, i64 11376
  %add = add nuw nsw i32 %size, 4
  tail call void @e1000x_increase_size_stats(ptr noundef nonnull %mac_reg, ptr noundef nonnull @e1000_send_packet.PTCregs, i32 noundef %add) #13
  ret void
}